; Function Attrs: nounwind uwtable
define internal fastcc void @cleanup_graphs(ptr noundef readonly captures(none) %0) unnamed_addr #0 {
  %2 = getelementptr inbounds nuw i8, ptr %0, i64 16
  %3 = load ptr, ptr %2, align 8, !tbaa !3
  %4 = getelementptr inbounds nuw i8, ptr %3, i64 236
  %5 = load i32, ptr %4, align 4, !tbaa !61
  %.not7 = icmp slt i32 %5, 1
  br i1 %.not7, label %._crit_edge, label %.lr.ph

.lr.ph:                                           ; preds = %1, %.lr.ph
  %indvars.iv = phi i64 [ %indvars.iv.next, %.lr.ph ], [ 1, %1 ]
  %6 = phi ptr [ %15, %.lr.ph ], [ %3, %1 ]
  %7 = getelementptr inbounds nuw i8, ptr %6, i64 240
  %8 = load ptr, ptr %7, align 8, !tbaa !64
  %9 = getelementptr inbounds nuw ptr, ptr %8, i64 %indvars.iv
  %10 = load ptr, ptr %9, align 8, !tbaa !57
  %11 = getelementptr inbounds nuw i8, ptr %10, i64 16
  %12 = load ptr, ptr %11, align 8, !tbaa !3
  %13 = getelementptr inbounds nuw i8, ptr %12, i64 24
  %14 = load ptr, ptr %13, align 8, !tbaa !76
  tail call void @free_label(ptr noundef %14) #15
  tail call fastcc void @cleanup_graphs(ptr noundef %10)
  %indvars.iv.next = add nuw nsw i64 %indvars.iv, 1
  %15 = load ptr, ptr %2, align 8, !tbaa !3
  %16 = getelementptr inbounds nuw i8, ptr %15, i64 236
  %17 = load i32, ptr %16, align 4, !tbaa !61
  %18 = sext i32 %17 to i64
  %.not.not = icmp slt i64 %indvars.iv, %18
  br i1 %.not.not, label %.lr.ph, label %._crit_edge, !llvm.loop !102

._crit_edge:                                      ; preds = %.lr.ph, %1
  %.lcssa = phi ptr [ %3, %1 ], [ %15, %.lr.ph ]
  %19 = getelementptr inbounds nuw i8, ptr %.lcssa, i64 240
  %20 = load ptr, ptr %19, align 8, !tbaa !64
  tail call void @free(ptr noundef %20) #15
  ret void
}